; ModuleID = '39/1586.c'
source_filename = "39/1586.c"
target datalayout = "e-m:e-p270:32:32-p271:32:32-p272:64:64-i64:64-f80:128-n8:16:32:64-S128"
target triple = "x86_64-pc-linux-gnu"

@.str = private unnamed_addr constant [3 x i8] c"%d\00", align 1
@.str.1 = private unnamed_addr constant [7 x i8] c"%s%d%d\00", align 1
@.str.2 = private unnamed_addr constant [9 x i8] c"%s\0A%d\0A%d\00", align 1

; Function Attrs: noinline nounwind uwtable
define dso_local void @main() #0 {
  %1 = alloca i32, align 4
  %2 = alloca i32, align 4
  %3 = alloca [100 x i32], align 16
  %4 = alloca [100 x i32], align 16
  %5 = alloca [100 x i32], align 16
  %6 = alloca i32, align 4
  %7 = alloca i32, align 4
  %8 = alloca i32, align 4
  %9 = alloca [100 x [20 x i8]], align 16
  %10 = alloca [100 x [7 x i8]], align 16
  %11 = bitcast [100 x i32]* %3 to i8*
  call void @llvm.memset.p0i8.i64(i8* align 16 %11, i8 0, i64 400, i1 false)
  %12 = bitcast [100 x i32]* %4 to i8*
  call void @llvm.memset.p0i8.i64(i8* align 16 %12, i8 0, i64 400, i1 false)
  %13 = bitcast [100 x i32]* %5 to i8*
  call void @llvm.memset.p0i8.i64(i8* align 16 %13, i8 0, i64 400, i1 false)
  %14 = call i32 (i8*, ...) @__isoc99_scanf(i8* getelementptr inbounds ([3 x i8], [3 x i8]* @.str, i64 0, i64 0), i32* %1)
  store i32 0, i32* %2, align 4
  br label %15

15:                                               ; preds = %36, %0
  %16 = load i32, i32* %2, align 4
  %17 = load i32, i32* %1, align 4
  %18 = icmp slt i32 %16, %17
  br i1 %18, label %19, label %39

19:                                               ; preds = %15
  %20 = load i32, i32* %2, align 4
  %21 = sext i32 %20 to i64
  %22 = getelementptr inbounds [100 x [20 x i8]], [100 x [20 x i8]]* %9, i64 0, i64 %21
  %23 = getelementptr inbounds [20 x i8], [20 x i8]* %22, i64 0, i64 0
  %24 = load i32, i32* %2, align 4
  %25 = sext i32 %24 to i64
  %26 = getelementptr inbounds [100 x i32], [100 x i32]* %3, i64 0, i64 %25
  %27 = load i32, i32* %2, align 4
  %28 = sext i32 %27 to i64
  %29 = getelementptr inbounds [100 x i32], [100 x i32]* %4, i64 0, i64 %28
  %30 = call i32 (i8*, ...) @__isoc99_scanf(i8* getelementptr inbounds ([7 x i8], [7 x i8]* @.str.1, i64 0, i64 0), i8* %23, i32* %26, i32* %29)
  %31 = load i32, i32* %2, align 4
  %32 = sext i32 %31 to i64
  %33 = getelementptr inbounds [100 x [7 x i8]], [100 x [7 x i8]]* %10, i64 0, i64 %32
  %34 = getelementptr inbounds [7 x i8], [7 x i8]* %33, i64 0, i64 0
  %35 = call i32 (i8*, ...) bitcast (i32 (...)* @gets to i32 (i8*, ...)*)(i8* %34)
  br label %36

36:                                               ; preds = %19
  %37 = load i32, i32* %2, align 4
  %38 = add nsw i32 %37, 1
  store i32 %38, i32* %2, align 4
  br label %15

39:                                               ; preds = %15
  store i32 0, i32* %2, align 4
  br label %40

40:                                               ; preds = %135, %39
  %41 = load i32, i32* %2, align 4
  %42 = load i32, i32* %1, align 4
  %43 = icmp slt i32 %41, %42
  br i1 %43, label %44, label %138

44:                                               ; preds = %40
  %45 = load i32, i32* %2, align 4
  %46 = sext i32 %45 to i64
  %47 = getelementptr inbounds [100 x i32], [100 x i32]* %3, i64 0, i64 %46
  %48 = load i32, i32* %47, align 4
  %49 = icmp sgt i32 %48, 80
  br i1 %49, label %50, label %64

50:                                               ; preds = %44
  %51 = load i32, i32* %2, align 4
  %52 = sext i32 %51 to i64
  %53 = getelementptr inbounds [100 x [7 x i8]], [100 x [7 x i8]]* %10, i64 0, i64 %52
  %54 = getelementptr inbounds [7 x i8], [7 x i8]* %53, i64 0, i64 5
  %55 = load i8, i8* %54, align 1
  %56 = sext i8 %55 to i32
  %57 = icmp ne i32 %56, 48
  br i1 %57, label %58, label %64

58:                                               ; preds = %50
  %59 = load i32, i32* %2, align 4
  %60 = sext i32 %59 to i64
  %61 = getelementptr inbounds [100 x i32], [100 x i32]* %5, i64 0, i64 %60
  %62 = load i32, i32* %61, align 4
  %63 = add nsw i32 %62, 8000
  store i32 %63, i32* %61, align 4
  br label %64

64:                                               ; preds = %58, %50, %44
  %65 = load i32, i32* %2, align 4
  %66 = sext i32 %65 to i64
  %67 = getelementptr inbounds [100 x i32], [100 x i32]* %3, i64 0, i64 %66
  %68 = load i32, i32* %67, align 4
  %69 = icmp sgt i32 %68, 85
  br i1 %69, label %70, label %82

70:                                               ; preds = %64
  %71 = load i32, i32* %2, align 4
  %72 = sext i32 %71 to i64
  %73 = getelementptr inbounds [100 x i32], [100 x i32]* %4, i64 0, i64 %72
  %74 = load i32, i32* %73, align 4
  %75 = icmp sgt i32 %74, 80
  br i1 %75, label %76, label %82

76:                                               ; preds = %70
  %77 = load i32, i32* %2, align 4
  %78 = sext i32 %77 to i64
  %79 = getelementptr inbounds [100 x i32], [100 x i32]* %5, i64 0, i64 %78
  %80 = load i32, i32* %79, align 4
  %81 = add nsw i32 %80, 4000
  store i32 %81, i32* %79, align 4
  br label %82

82:                                               ; preds = %76, %70, %64
  %83 = load i32, i32* %2, align 4
  %84 = sext i32 %83 to i64
  %85 = getelementptr inbounds [100 x i32], [100 x i32]* %3, i64 0, i64 %84
  %86 = load i32, i32* %85, align 4
  %87 = icmp sgt i32 %86, 90
  br i1 %87, label %88, label %94

88:                                               ; preds = %82
  %89 = load i32, i32* %2, align 4
  %90 = sext i32 %89 to i64
  %91 = getelementptr inbounds [100 x i32], [100 x i32]* %5, i64 0, i64 %90
  %92 = load i32, i32* %91, align 4
  %93 = add nsw i32 %92, 2000
  store i32 %93, i32* %91, align 4
  br label %94

94:                                               ; preds = %88, %82
  %95 = load i32, i32* %2, align 4
  %96 = sext i32 %95 to i64
  %97 = getelementptr inbounds [100 x i32], [100 x i32]* %3, i64 0, i64 %96
  %98 = load i32, i32* %97, align 4
  %99 = icmp sgt i32 %98, 85
  br i1 %99, label %100, label %114

100:                                              ; preds = %94
  %101 = load i32, i32* %2, align 4
  %102 = sext i32 %101 to i64
  %103 = getelementptr inbounds [100 x [7 x i8]], [100 x [7 x i8]]* %10, i64 0, i64 %102
  %104 = getelementptr inbounds [7 x i8], [7 x i8]* %103, i64 0, i64 3
  %105 = load i8, i8* %104, align 1
  %106 = sext i8 %105 to i32
  %107 = icmp eq i32 %106, 89
  br i1 %107, label %108, label %114

108:                                              ; preds = %100
  %109 = load i32, i32* %2, align 4
  %110 = sext i32 %109 to i64
  %111 = getelementptr inbounds [100 x i32], [100 x i32]* %5, i64 0, i64 %110
  %112 = load i32, i32* %111, align 4
  %113 = add nsw i32 %112, 1000
  store i32 %113, i32* %111, align 4
  br label %114

114:                                              ; preds = %108, %100, %94
  %115 = load i32, i32* %2, align 4
  %116 = sext i32 %115 to i64
  %117 = getelementptr inbounds [100 x i32], [100 x i32]* %4, i64 0, i64 %116
  %118 = load i32, i32* %117, align 4
  %119 = icmp sgt i32 %118, 80
  br i1 %119, label %120, label %134

120:                                              ; preds = %114
  %121 = load i32, i32* %2, align 4
  %122 = sext i32 %121 to i64
  %123 = getelementptr inbounds [100 x [7 x i8]], [100 x [7 x i8]]* %10, i64 0, i64 %122
  %124 = getelementptr inbounds [7 x i8], [7 x i8]* %123, i64 0, i64 1
  %125 = load i8, i8* %124, align 1
  %126 = sext i8 %125 to i32
  %127 = icmp eq i32 %126, 89
  br i1 %127, label %128, label %134

128:                                              ; preds = %120
  %129 = load i32, i32* %2, align 4
  %130 = sext i32 %129 to i64
  %131 = getelementptr inbounds [100 x i32], [100 x i32]* %5, i64 0, i64 %130
  %132 = load i32, i32* %131, align 4
  %133 = add nsw i32 %132, 850
  store i32 %133, i32* %131, align 4
  br label %134

134:                                              ; preds = %128, %120, %114
  br label %135

135:                                              ; preds = %134
  %136 = load i32, i32* %2, align 4
  %137 = add nsw i32 %136, 1
  store i32 %137, i32* %2, align 4
  br label %40

138:                                              ; preds = %40
  %139 = getelementptr inbounds [100 x i32], [100 x i32]* %5, i64 0, i64 0
  %140 = load i32, i32* %139, align 16
  store i32 %140, i32* %8, align 4
  store i32 1, i32* %2, align 4
  br label %141

141:                                              ; preds = %165, %138
  %142 = load i32, i32* %2, align 4
  %143 = load i32, i32* %1, align 4
  %144 = icmp slt i32 %142, %143
  br i1 %144, label %145, label %168

145:                                              ; preds = %141
  %146 = load i32, i32* %2, align 4
  %147 = sext i32 %146 to i64
  %148 = getelementptr inbounds [100 x i32], [100 x i32]* %5, i64 0, i64 %147
  %149 = load i32, i32* %148, align 4
  %150 = load i32, i32* %6, align 4
  %151 = icmp sgt i32 %149, %150
  br i1 %151, label %152, label %158

152:                                              ; preds = %145
  %153 = load i32, i32* %2, align 4
  %154 = sext i32 %153 to i64
  %155 = getelementptr inbounds [100 x i32], [100 x i32]* %5, i64 0, i64 %154
  %156 = load i32, i32* %155, align 4
  store i32 %156, i32* %6, align 4
  %157 = load i32, i32* %2, align 4
  store i32 %157, i32* %7, align 4
  br label %158

158:                                              ; preds = %152, %145
  %159 = load i32, i32* %2, align 4
  %160 = sext i32 %159 to i64
  %161 = getelementptr inbounds [100 x i32], [100 x i32]* %5, i64 0, i64 %160
  %162 = load i32, i32* %161, align 4
  %163 = load i32, i32* %8, align 4
  %164 = add nsw i32 %163, %162
  store i32 %164, i32* %8, align 4
  br label %165

165:                                              ; preds = %158
  %166 = load i32, i32* %2, align 4
  %167 = add nsw i32 %166, 1
  store i32 %167, i32* %2, align 4
  br label %141

168:                                              ; preds = %141
  %169 = load i32, i32* %7, align 4
  %170 = sext i32 %169 to i64
  %171 = getelementptr inbounds [100 x [20 x i8]], [100 x [20 x i8]]* %9, i64 0, i64 %170
  %172 = getelementptr inbounds [20 x i8], [20 x i8]* %171, i64 0, i64 0
  %173 = load i32, i32* %6, align 4
  %174 = load i32, i32* %8, align 4
  %175 = call i32 (i8*, ...) @printf(i8* getelementptr inbounds ([9 x i8], [9 x i8]* @.str.2, i64 0, i64 0), i8* %172, i32 %173, i32 %174)
  ret void
}

; Function Attrs: argmemonly nounwind willreturn
declare void @llvm.memset.p0i8.i64(i8* nocapture writeonly, i8, i64, i1 immarg) #1

declare dso_local i32 @__isoc99_scanf(i8*, ...) #2

declare dso_local i32 @gets(...) #2

declare dso_local i32 @printf(i8*, ...) #2


!llvm.module.flags = !{!0}
!llvm.ident = !{!1}

!0 = !{i32 1, !"wchar_size", i32 4}
!1 = !{!"clang version 10.0.0-4ubuntu1 "}
